target datalayout = "e-m:e-p270:32:32-p271:32:32-p272:64:64-i64:64-i128:128-f80:128-n8:16:32:64-S128"
target triple = "x86_64-pc-linux-gnu"

@proto_register_btsap.ett = internal global [2 x ptr] [ptr @ett_btsap, ptr @ett_btsap_parameter], align 16
@.str.45 = private unnamed_addr constant [22 x i8] c"Bluetooth SAP Profile\00", align 1
@.str.46 = private unnamed_addr constant [7 x i8] c"BT SAP\00", align 1
@.str.47 = private unnamed_addr constant [6 x i8] c"btsap\00", align 1
@proto_btsap = internal global i32 0, align 4
@btsap_handle = internal global ptr null, align 8
@.str.48 = private unnamed_addr constant [10 x i8] c"Bluetooth\00", align 1
@.str.49 = private unnamed_addr constant [12 x i8] c"sap.version\00", align 1
@.str.50 = private unnamed_addr constant [35 x i8] c"Bluetooth Profile SAP version: 1.1\00", align 1
@.str.51 = private unnamed_addr constant [49 x i8] c"Version of protocol supported by this dissector.\00", align 1
@.str.52 = private unnamed_addr constant [16 x i8] c"sap.top_dissect\00", align 1
@.str.53 = private unnamed_addr constant [29 x i8] c"Dissecting the top protocols\00", align 1
@top_dissect = internal global i32 1, align 4

; Function Attrs: null_pointer_is_valid sspstrong uwtable
define hidden void @proto_register_btsap() #0 {
  %1 = alloca ptr, align 8
  %2 = alloca ptr, align 8
  call void @llvm.lifetime.start.p0(i64 8, ptr %1) #4
  call void @llvm.lifetime.start.p0(i64 8, ptr %2) #4
  %3 = call i32 @proto_register_protocol(ptr noundef @.str.45, ptr noundef @.str.46, ptr noundef @.str.47)
  store i32 %3, ptr @proto_btsap, align 4
  %4 = load i32, ptr @proto_btsap, align 4
  %5 = call ptr @register_dissector(ptr noundef @.str.47, ptr noundef @dissect_btsap, i32 noundef %4)
  store ptr %5, ptr @btsap_handle, align 8
  %6 = load i32, ptr @proto_btsap, align 4
  call void @proto_register_field_array(i32 noundef %6, ptr noundef @proto_register_btsap.hf, i32 noundef 21)
  call void @proto_register_subtree_array(ptr noundef @proto_register_btsap.ett, i32 noundef 2)
  %7 = load i32, ptr @proto_btsap, align 4
  %8 = call ptr @expert_register_protocol(i32 noundef %7)
  store ptr %8, ptr %2, align 8
  %9 = load ptr, ptr %2, align 8
  call void @expert_register_field_array(ptr noundef %9, ptr noundef @proto_register_btsap.ei, i32 noundef 2)
  %10 = load i32, ptr @proto_btsap, align 4
  %11 = call ptr @prefs_register_protocol_subtree(ptr noundef @.str.48, i32 noundef %10, ptr noundef null)
  store ptr %11, ptr %1, align 8
  %12 = load ptr, ptr %1, align 8
  call void @prefs_register_static_text_preference(ptr noundef %12, ptr noundef @.str.49, ptr noundef @.str.50, ptr noundef @.str.51)
  %13 = load ptr, ptr %1, align 8
  call void @prefs_register_enum_preference(ptr noundef %13, ptr noundef @.str.52, ptr noundef @.str.53, ptr noundef @.str.53, ptr noundef @top_dissect, ptr noundef @pref_top_dissect, i1 noundef zeroext false)
  call void @llvm.lifetime.end.p0(i64 8, ptr %2) #4
  call void @llvm.lifetime.end.p0(i64 8, ptr %1) #4
  ret void
}