; Function Attrs: null_pointer_is_valid sspstrong uwtable
define hidden void @proto_register_btsap() local_unnamed_addr #0 {
  %1 = tail call i32 @proto_register_protocol(ptr noundef nonnull @.str.45, ptr noundef nonnull @.str.46, ptr noundef nonnull @.str.47)
  store i32 %1, ptr @proto_btsap, align 4
  %2 = tail call ptr @register_dissector(ptr noundef nonnull @.str.47, ptr noundef nonnull @dissect_btsap, i32 noundef %1)
  store ptr %2, ptr @btsap_handle, align 8
  %3 = load i32, ptr @proto_btsap, align 4
  tail call void @proto_register_field_array(i32 noundef %3, ptr noundef nonnull @proto_register_btsap.hf, i32 noundef 21)
  tail call void @proto_register_subtree_array(ptr noundef nonnull @proto_register_btsap.ett, i32 noundef 2)
  %4 = load i32, ptr @proto_btsap, align 4
  %5 = tail call ptr @expert_register_protocol(i32 noundef %4)
  tail call void @expert_register_field_array(ptr noundef %5, ptr noundef nonnull @proto_register_btsap.ei, i32 noundef 2)
  %6 = load i32, ptr @proto_btsap, align 4
  %7 = tail call ptr @prefs_register_protocol_subtree(ptr noundef nonnull @.str.48, i32 noundef %6, ptr noundef null)
  tail call void @prefs_register_static_text_preference(ptr noundef %7, ptr noundef nonnull @.str.49, ptr noundef nonnull @.str.50, ptr noundef nonnull @.str.51)
  tail call void @prefs_register_enum_preference(ptr noundef %7, ptr noundef nonnull @.str.52, ptr noundef nonnull @.str.53, ptr noundef nonnull @.str.53, ptr noundef nonnull @top_dissect, ptr noundef nonnull @pref_top_dissect, i1 noundef zeroext false)
  ret void
}